target datalayout = "e-m:e-p270:32:32-p271:32:32-p272:64:64-i64:64-i128:128-f80:128-n8:16:32:64-S128"
target triple = "x86_64-pc-linux-gnu"

%struct.Abc_Obj_t_ = type { ptr, ptr, i32, i32, %struct.Vec_Int_t_, %struct.Vec_Int_t_, %union.anon, %union.anon.0 }
%struct.Vec_Int_t_ = type { i32, i32, ptr }
%union.anon = type { ptr }
%union.anon.0 = type { ptr }
%struct.Sfm_Tim_t_ = type { ptr, ptr, ptr, i32, i32, %struct.Vec_Int_t_, %struct.Vec_Int_t_, %struct.Vec_Wec_t_, %struct.Vec_Int_t_, %struct.Vec_Wrd_t_ }
%struct.Vec_Wec_t_ = type { i32, i32, ptr }
%struct.Vec_Wrd_t_ = type { i32, i32, ptr }

; Function Attrs: inlinehint nounwind uwtable
define internal i32 @Abc_MinInt(i32 noundef %0, i32 noundef %1) #2 {
  %3 = alloca i32, align 4
  %4 = alloca i32, align 4
  store i32 %0, ptr %3, align 4, !tbaa !12
  store i32 %1, ptr %4, align 4, !tbaa !12
  %5 = load i32, ptr %3, align 4, !tbaa !12
  %6 = load i32, ptr %4, align 4, !tbaa !12
  %7 = icmp slt i32 %5, %6
  br i1 %7, label %8, label %10

8:                                                ; preds = %2
  %9 = load i32, ptr %3, align 4, !tbaa !12
  br label %12

10:                                               ; preds = %2
  %11 = load i32, ptr %4, align 4, !tbaa !12
  br label %12

12:                                               ; preds = %10, %8
  %13 = phi i32 [ %9, %8 ], [ %11, %10 ]
  ret i32 %13
}

; Function Attrs: inlinehint nounwind uwtable
define internal i32 @Scl_Flt2Int(float noundef %0) #2 {
  %2 = alloca float, align 4
  store float %0, ptr %2, align 4, !tbaa !105
  %3 = load float, ptr %2, align 4, !tbaa !105
  %4 = fmul float 1.000000e+03, %3
  %5 = fptosi float %4 to i32
  ret i32 %5
}

; Function Attrs: inlinehint nounwind uwtable
define internal void @Sfm_TimEdgeRequired(ptr noundef %0, ptr noundef %1, ptr noundef %2, ptr noundef %3) #2 {
  %5 = alloca ptr, align 8
  %6 = alloca ptr, align 8
  %7 = alloca ptr, align 8
  %8 = alloca ptr, align 8
  %9 = alloca i32, align 4
  %10 = alloca i32, align 4
  %11 = alloca i32, align 4
  store ptr %0, ptr %5, align 8, !tbaa !3
  store ptr %1, ptr %6, align 8, !tbaa !26
  store ptr %2, ptr %7, align 8, !tbaa !10
  store ptr %3, ptr %8, align 8, !tbaa !10
  call void @llvm.lifetime.start.p0(i64 4, ptr %9) #9
  %12 = load ptr, ptr %6, align 8, !tbaa !26
  %13 = call i32 @Mio_PinReadPhase(ptr noundef %12)
  store i32 %13, ptr %9, align 4, !tbaa !12
  call void @llvm.lifetime.start.p0(i64 4, ptr %10) #9
  %14 = load ptr, ptr %6, align 8, !tbaa !26
  %15 = call double @Mio_PinReadDelayBlockRise(ptr noundef %14)
  %16 = fptrunc double %15 to float
  %17 = call i32 @Scl_Flt2Int(float noundef %16)
  store i32 %17, ptr %10, align 4, !tbaa !12
  call void @llvm.lifetime.start.p0(i64 4, ptr %11) #9
  %18 = load ptr, ptr %6, align 8, !tbaa !26
  %19 = call double @Mio_PinReadDelayBlockFall(ptr noundef %18)
  %20 = fptrunc double %19 to float
  %21 = call i32 @Scl_Flt2Int(float noundef %20)
  store i32 %21, ptr %11, align 4, !tbaa !12
  %22 = load i32, ptr %9, align 4, !tbaa !12
  %23 = icmp ne i32 %22, 1
  br i1 %23, label %24, label %47

24:                                               ; preds = %4
  %25 = load ptr, ptr %7, align 8, !tbaa !10
  %26 = getelementptr inbounds i32, ptr %25, i64 0
  %27 = load i32, ptr %26, align 4, !tbaa !12
  %28 = load ptr, ptr %8, align 8, !tbaa !10
  %29 = getelementptr inbounds i32, ptr %28, i64 0
  %30 = load i32, ptr %29, align 4, !tbaa !12
  %31 = load i32, ptr %10, align 4, !tbaa !12
  %32 = sub nsw i32 %30, %31
  %33 = call i32 @Abc_MinInt(i32 noundef %27, i32 noundef %32)
  %34 = load ptr, ptr %7, align 8, !tbaa !10
  %35 = getelementptr inbounds i32, ptr %34, i64 0
  store i32 %33, ptr %35, align 4, !tbaa !12
  %36 = load ptr, ptr %7, align 8, !tbaa !10
  %37 = getelementptr inbounds i32, ptr %36, i64 1
  %38 = load i32, ptr %37, align 4, !tbaa !12
  %39 = load ptr, ptr %8, align 8, !tbaa !10
  %40 = getelementptr inbounds i32, ptr %39, i64 1
  %41 = load i32, ptr %40, align 4, !tbaa !12
  %42 = load i32, ptr %11, align 4, !tbaa !12
  %43 = sub nsw i32 %41, %42
  %44 = call i32 @Abc_MinInt(i32 noundef %38, i32 noundef %43)
  %45 = load ptr, ptr %7, align 8, !tbaa !10
  %46 = getelementptr inbounds i32, ptr %45, i64 1
  store i32 %44, ptr %46, align 4, !tbaa !12
  br label %47

47:                                               ; preds = %24, %4
  %48 = load i32, ptr %9, align 4, !tbaa !12
  %49 = icmp ne i32 %48, 2
  br i1 %49, label %50, label %73

50:                                               ; preds = %47
  %51 = load ptr, ptr %7, align 8, !tbaa !10
  %52 = getelementptr inbounds i32, ptr %51, i64 0
  %53 = load i32, ptr %52, align 4, !tbaa !12
  %54 = load ptr, ptr %8, align 8, !tbaa !10
  %55 = getelementptr inbounds i32, ptr %54, i64 1
  %56 = load i32, ptr %55, align 4, !tbaa !12
  %57 = load i32, ptr %10, align 4, !tbaa !12
  %58 = sub nsw i32 %56, %57
  %59 = call i32 @Abc_MinInt(i32 noundef %53, i32 noundef %58)
  %60 = load ptr, ptr %7, align 8, !tbaa !10
  %61 = getelementptr inbounds i32, ptr %60, i64 0
  store i32 %59, ptr %61, align 4, !tbaa !12
  %62 = load ptr, ptr %7, align 8, !tbaa !10
  %63 = getelementptr inbounds i32, ptr %62, i64 1
  %64 = load i32, ptr %63, align 4, !tbaa !12
  %65 = load ptr, ptr %8, align 8, !tbaa !10
  %66 = getelementptr inbounds i32, ptr %65, i64 0
  %67 = load i32, ptr %66, align 4, !tbaa !12
  %68 = load i32, ptr %11, align 4, !tbaa !12
  %69 = sub nsw i32 %67, %68
  %70 = call i32 @Abc_MinInt(i32 noundef %64, i32 noundef %69)
  %71 = load ptr, ptr %7, align 8, !tbaa !10
  %72 = getelementptr inbounds i32, ptr %71, i64 1
  store i32 %70, ptr %72, align 4, !tbaa !12
  br label %73

73:                                               ; preds = %50, %47
  call void @llvm.lifetime.end.p0(i64 4, ptr %11) #9
  call void @llvm.lifetime.end.p0(i64 4, ptr %10) #9
  call void @llvm.lifetime.end.p0(i64 4, ptr %9) #9
  ret void
}

; Function Attrs: inlinehint nounwind uwtable
define internal ptr @Vec_IntEntryP(ptr noundef %0, i32 noundef %1) #2 {
  %3 = alloca ptr, align 8
  %4 = alloca i32, align 4
  store ptr %0, ptr %3, align 8, !tbaa !29
  store i32 %1, ptr %4, align 4, !tbaa !12
  %5 = load ptr, ptr %3, align 8, !tbaa !29
  %6 = getelementptr inbounds nuw %struct.Vec_Int_t_, ptr %5, i32 0, i32 2
  %7 = load ptr, ptr %6, align 8, !tbaa !52
  %8 = load i32, ptr %4, align 4, !tbaa !12
  %9 = sext i32 %8 to i64
  %10 = getelementptr inbounds i32, ptr %7, i64 %9
  ret ptr %10
}

; Function Attrs: inlinehint nounwind uwtable
define internal i32 @Abc_Var2Lit(i32 noundef %0, i32 noundef %1) #2 {
  %3 = alloca i32, align 4
  %4 = alloca i32, align 4
  store i32 %0, ptr %3, align 4, !tbaa !12
  store i32 %1, ptr %4, align 4, !tbaa !12
  %5 = load i32, ptr %3, align 4, !tbaa !12
  %6 = load i32, ptr %3, align 4, !tbaa !12
  %7 = add nsw i32 %5, %6
  %8 = load i32, ptr %4, align 4, !tbaa !12
  %9 = add nsw i32 %7, %8
  ret i32 %9
}

; Function Attrs: inlinehint nounwind uwtable
define internal i32 @Abc_ObjId(ptr noundef %0) #2 {
  %2 = alloca ptr, align 8
  store ptr %0, ptr %2, align 8, !tbaa !8
  %3 = load ptr, ptr %2, align 8, !tbaa !8
  %4 = getelementptr inbounds nuw %struct.Abc_Obj_t_, ptr %3, i32 0, i32 2
  %5 = load i32, ptr %4, align 8, !tbaa !53
  ret i32 %5
}

; Function Attrs: inlinehint nounwind uwtable
define internal void @Sfm_TimGateRequired(ptr noundef %0, ptr noundef %1, ptr noundef %2, ptr noundef %3) #2 {
  %5 = alloca ptr, align 8
  %6 = alloca ptr, align 8
  %7 = alloca ptr, align 8
  %8 = alloca ptr, align 8
  %9 = alloca ptr, align 8
  %10 = alloca i32, align 4
  store ptr %0, ptr %5, align 8, !tbaa !3
  store ptr %1, ptr %6, align 8, !tbaa !22
  store ptr %2, ptr %7, align 8, !tbaa !24
  store ptr %3, ptr %8, align 8, !tbaa !10
  call void @llvm.lifetime.start.p0(i64 8, ptr %9) #9
  call void @llvm.lifetime.start.p0(i64 4, ptr %10) #9
  store i32 0, ptr %10, align 4, !tbaa !12
  %11 = load ptr, ptr %6, align 8, !tbaa !22
  %12 = call ptr @Mio_GateReadPins(ptr noundef %11)
  store ptr %12, ptr %9, align 8, !tbaa !26
  br label %13

13:                                               ; preds = %26, %4
  %14 = load ptr, ptr %9, align 8, !tbaa !26
  %15 = icmp ne ptr %14, null
  br i1 %15, label %16, label %29

16:                                               ; preds = %13
  %17 = load ptr, ptr %5, align 8, !tbaa !3
  %18 = load ptr, ptr %9, align 8, !tbaa !26
  %19 = load ptr, ptr %7, align 8, !tbaa !24
  %20 = load i32, ptr %10, align 4, !tbaa !12
  %21 = add nsw i32 %20, 1
  store i32 %21, ptr %10, align 4, !tbaa !12
  %22 = sext i32 %20 to i64
  %23 = getelementptr inbounds ptr, ptr %19, i64 %22
  %24 = load ptr, ptr %23, align 8, !tbaa !10
  %25 = load ptr, ptr %8, align 8, !tbaa !10
  call void @Sfm_TimEdgeRequired(ptr noundef %17, ptr noundef %18, ptr noundef %24, ptr noundef %25)
  br label %26

26:                                               ; preds = %16
  %27 = load ptr, ptr %9, align 8, !tbaa !26
  %28 = call ptr @Mio_PinReadNext(ptr noundef %27)
  store ptr %28, ptr %9, align 8, !tbaa !26
  br label %13, !llvm.loop !28

29:                                               ; preds = %13
  call void @llvm.lifetime.end.p0(i64 4, ptr %10) #9
  call void @llvm.lifetime.end.p0(i64 8, ptr %9) #9
  ret void
}

; Function Attrs: inlinehint nounwind uwtable
define internal ptr @Sfm_TimReqId(ptr noundef %0, i32 noundef %1) #2 {
  %3 = alloca ptr, align 8
  %4 = alloca i32, align 4
  store ptr %0, ptr %3, align 8, !tbaa !3
  store i32 %1, ptr %4, align 4, !tbaa !12
  %5 = load ptr, ptr %3, align 8, !tbaa !3
  %6 = getelementptr inbounds nuw %struct.Sfm_Tim_t_, ptr %5, i32 0, i32 6
  %7 = load i32, ptr %4, align 4, !tbaa !12
  %8 = call i32 @Abc_Var2Lit(i32 noundef %7, i32 noundef 0)
  %9 = call ptr @Vec_IntEntryP(ptr noundef %6, i32 noundef %8)
  ret ptr %9
}

; Function Attrs: inlinehint nounwind uwtable
define internal i32 @Abc_ObjFaninId(ptr noundef %0, i32 noundef %1) #2 {
  %3 = alloca ptr, align 8
  %4 = alloca i32, align 4
  store ptr %0, ptr %3, align 8, !tbaa !8
  store i32 %1, ptr %4, align 4, !tbaa !12
  %5 = load ptr, ptr %3, align 8, !tbaa !8
  %6 = getelementptr inbounds nuw %struct.Abc_Obj_t_, ptr %5, i32 0, i32 4
  %7 = getelementptr inbounds nuw %struct.Vec_Int_t_, ptr %6, i32 0, i32 2
  %8 = load ptr, ptr %7, align 8, !tbaa !21
  %9 = load i32, ptr %4, align 4, !tbaa !12
  %10 = sext i32 %9 to i64
  %11 = getelementptr inbounds i32, ptr %8, i64 %10
  %12 = load i32, ptr %11, align 4, !tbaa !12
  ret i32 %12
}

; Function Attrs: inlinehint nounwind uwtable
define internal i32 @Abc_ObjFaninNum(ptr noundef %0) #2 {
  %2 = alloca ptr, align 8
  store ptr %0, ptr %2, align 8, !tbaa !8
  %3 = load ptr, ptr %2, align 8, !tbaa !8
  %4 = getelementptr inbounds nuw %struct.Abc_Obj_t_, ptr %3, i32 0, i32 4
  %5 = getelementptr inbounds nuw %struct.Vec_Int_t_, ptr %4, i32 0, i32 1
  %6 = load i32, ptr %5, align 4, !tbaa !17
  ret i32 %6
}

; Function Attrs: inlinehint nounwind uwtable
define internal ptr @Sfm_TimReq(ptr noundef %0, ptr noundef %1) #2 {
  %3 = alloca ptr, align 8
  %4 = alloca ptr, align 8
  store ptr %0, ptr %3, align 8, !tbaa !3
  store ptr %1, ptr %4, align 8, !tbaa !8
  %5 = load ptr, ptr %3, align 8, !tbaa !3
  %6 = getelementptr inbounds nuw %struct.Sfm_Tim_t_, ptr %5, i32 0, i32 6
  %7 = load ptr, ptr %4, align 8, !tbaa !8
  %8 = call i32 @Abc_ObjId(ptr noundef %7)
  %9 = call i32 @Abc_Var2Lit(i32 noundef %8, i32 noundef 0)
  %10 = call ptr @Vec_IntEntryP(ptr noundef %6, i32 noundef %9)
  ret ptr %10
}

; Function Attrs: nounwind uwtable
define void @Sfm_TimNodeRequired(ptr noundef %0, ptr noundef %1) #0 {
  %3 = alloca ptr, align 8
  %4 = alloca ptr, align 8
  %5 = alloca i32, align 4
  %6 = alloca i32, align 4
  %7 = alloca [6 x ptr], align 16
  %8 = alloca ptr, align 8
  store ptr %0, ptr %3, align 8, !tbaa !3
  store ptr %1, ptr %4, align 8, !tbaa !8
  call void @llvm.lifetime.start.p0(i64 4, ptr %5) #9
  call void @llvm.lifetime.start.p0(i64 4, ptr %6) #9
  call void @llvm.lifetime.start.p0(i64 48, ptr %7) #9
  call void @llvm.lifetime.start.p0(i64 8, ptr %8) #9
  %9 = load ptr, ptr %3, align 8, !tbaa !3
  %10 = load ptr, ptr %4, align 8, !tbaa !8
  %11 = call ptr @Sfm_TimReq(ptr noundef %9, ptr noundef %10)
  store ptr %11, ptr %8, align 8, !tbaa !10
  store i32 0, ptr %5, align 4, !tbaa !12
  br label %12

12:                                               ; preds = %30, %2
  %13 = load i32, ptr %5, align 4, !tbaa !12
  %14 = load ptr, ptr %4, align 8, !tbaa !8
  %15 = call i32 @Abc_ObjFaninNum(ptr noundef %14)
  %16 = icmp slt i32 %13, %15
  br i1 %16, label %17, label %21

17:                                               ; preds = %12
  %18 = load ptr, ptr %4, align 8, !tbaa !8
  %19 = load i32, ptr %5, align 4, !tbaa !12
  %20 = call i32 @Abc_ObjFaninId(ptr noundef %18, i32 noundef %19)
  store i32 %20, ptr %6, align 4, !tbaa !12
  br label %21

21:                                               ; preds = %17, %12
  %22 = phi i1 [ false, %12 ], [ true, %17 ]
  br i1 %22, label %23, label %33

23:                                               ; preds = %21
  %24 = load ptr, ptr %3, align 8, !tbaa !3
  %25 = load i32, ptr %6, align 4, !tbaa !12
  %26 = call ptr @Sfm_TimReqId(ptr noundef %24, i32 noundef %25)
  %27 = load i32, ptr %5, align 4, !tbaa !12
  %28 = sext i32 %27 to i64
  %29 = getelementptr inbounds [6 x ptr], ptr %7, i64 0, i64 %28
  store ptr %26, ptr %29, align 8, !tbaa !10
  br label %30

30:                                               ; preds = %23
  %31 = load i32, ptr %5, align 4, !tbaa !12
  %32 = add nsw i32 %31, 1
  store i32 %32, ptr %5, align 4, !tbaa !12
  br label %12, !llvm.loop !14

33:                                               ; preds = %21
  %34 = load ptr, ptr %3, align 8, !tbaa !3
  %35 = load ptr, ptr %4, align 8, !tbaa !8
  %36 = getelementptr inbounds nuw %struct.Abc_Obj_t_, ptr %35, i32 0, i32 6
  %37 = load ptr, ptr %36, align 8, !tbaa !16
  %38 = getelementptr inbounds [6 x ptr], ptr %7, i64 0, i64 0
  %39 = load ptr, ptr %8, align 8, !tbaa !10
  call void @Sfm_TimGateRequired(ptr noundef %34, ptr noundef %37, ptr noundef %38, ptr noundef %39)
  call void @llvm.lifetime.end.p0(i64 8, ptr %8) #9
  call void @llvm.lifetime.end.p0(i64 48, ptr %7) #9
  call void @llvm.lifetime.end.p0(i64 4, ptr %6) #9
  call void @llvm.lifetime.end.p0(i64 4, ptr %5) #9
  ret void
}