; Function Attrs: nounwind uwtable
define void @Sfm_TimNodeRequired(ptr noundef readonly captures(none) %0, ptr noundef readonly captures(none) %1) local_unnamed_addr #0 {
  %3 = alloca [6 x ptr], align 16
  call void @llvm.lifetime.start.p0(i64 48, ptr nonnull %3) #13
  %4 = getelementptr i8, ptr %0, i64 56
  %.val = load ptr, ptr %4, align 8, !tbaa !3
  %5 = getelementptr i8, ptr %1, i64 16
  %.val12 = load i32, ptr %5, align 8, !tbaa !10
  %6 = shl nsw i32 %.val12, 1
  %7 = sext i32 %6 to i64
  %8 = getelementptr inbounds i32, ptr %.val, i64 %7
  %9 = getelementptr i8, ptr %1, i64 28
  %.val13 = load i32, ptr %9, align 4, !tbaa !14
  %10 = icmp sgt i32 %.val13, 0
  br i1 %10, label %.lr.ph, label %.critedge

.lr.ph:                                           ; preds = %2
  %11 = getelementptr i8, ptr %1, i64 32
  %.val14 = load ptr, ptr %11, align 8, !tbaa !15
  %wide.trip.count = zext nneg i32 %.val13 to i64
  br label %12

12:                                               ; preds = %.lr.ph, %12
  %indvars.iv = phi i64 [ 0, %.lr.ph ], [ %indvars.iv.next, %12 ]
  %13 = getelementptr inbounds nuw i32, ptr %.val14, i64 %indvars.iv
  %14 = load i32, ptr %13, align 4, !tbaa !16
  %15 = shl nsw i32 %14, 1
  %16 = sext i32 %15 to i64
  %17 = getelementptr inbounds i32, ptr %.val, i64 %16
  %18 = getelementptr inbounds nuw [6 x ptr], ptr %3, i64 0, i64 %indvars.iv
  store ptr %17, ptr %18, align 8, !tbaa !17
  %indvars.iv.next = add nuw nsw i64 %indvars.iv, 1
  %exitcond.not = icmp eq i64 %indvars.iv.next, %wide.trip.count
  br i1 %exitcond.not, label %.critedge, label %12, !llvm.loop !18

.critedge:                                        ; preds = %12, %2
  %19 = getelementptr inbounds nuw i8, ptr %1, i64 56
  %20 = load ptr, ptr %19, align 8, !tbaa !20
  %21 = tail call ptr @Mio_GateReadPins(ptr noundef %20) #13
  %.not1.i = icmp eq ptr %21, null
  br i1 %.not1.i, label %Sfm_TimGateRequired.exit, label %.lr.ph.i

.lr.ph.i:                                         ; preds = %.critedge
  %22 = getelementptr inbounds nuw i8, ptr %8, i64 4
  br label %23

23:                                               ; preds = %Sfm_TimEdgeRequired.exit.i, %.lr.ph.i
  %indvars.iv.i = phi i64 [ 0, %.lr.ph.i ], [ %indvars.iv.next.i, %Sfm_TimEdgeRequired.exit.i ]
  %.072.i = phi ptr [ %21, %.lr.ph.i ], [ %54, %Sfm_TimEdgeRequired.exit.i ]
  %indvars.iv.next.i = add nuw nsw i64 %indvars.iv.i, 1
  %24 = getelementptr inbounds nuw ptr, ptr %3, i64 %indvars.iv.i
  %25 = load ptr, ptr %24, align 8, !tbaa !17
  %26 = tail call i32 @Mio_PinReadPhase(ptr noundef nonnull %.072.i) #13
  %27 = tail call double @Mio_PinReadDelayBlockRise(ptr noundef nonnull %.072.i) #13
  %28 = fptrunc double %27 to float
  %29 = fmul float %28, 1.000000e+03
  %30 = fptosi float %29 to i32
  %31 = tail call double @Mio_PinReadDelayBlockFall(ptr noundef nonnull %.072.i) #13
  %32 = fptrunc double %31 to float
  %33 = fmul float %32, 1.000000e+03
  %34 = fptosi float %33 to i32
  %cond.i.i = icmp eq i32 %26, 1
  %.pre.i.i = load i32, ptr %25, align 4, !tbaa !16
  br i1 %cond.i.i, label %._crit_edge.i.i, label %35

._crit_edge.i.i:                                  ; preds = %23
  %.phi.trans.insert.i.i = getelementptr inbounds nuw i8, ptr %25, i64 4
  %.pre1.i.i = load i32, ptr %.phi.trans.insert.i.i, align 4, !tbaa !16
  br label %44

35:                                               ; preds = %23
  %36 = load i32, ptr %8, align 4, !tbaa !16
  %37 = sub nsw i32 %36, %30
  %38 = tail call noundef i32 @llvm.smin.i32(i32 %.pre.i.i, i32 %37)
  store i32 %38, ptr %25, align 4, !tbaa !16
  %39 = getelementptr inbounds nuw i8, ptr %25, i64 4
  %40 = load i32, ptr %39, align 4, !tbaa !16
  %41 = load i32, ptr %22, align 4, !tbaa !16
  %42 = sub nsw i32 %41, %34
  %43 = tail call noundef i32 @llvm.smin.i32(i32 %40, i32 %42)
  store i32 %43, ptr %39, align 4, !tbaa !16
  %.not20.i.i = icmp eq i32 %26, 2
  br i1 %.not20.i.i, label %Sfm_TimEdgeRequired.exit.i, label %44

44:                                               ; preds = %35, %._crit_edge.i.i
  %45 = phi i32 [ %.pre1.i.i, %._crit_edge.i.i ], [ %43, %35 ]
  %46 = phi i32 [ %.pre.i.i, %._crit_edge.i.i ], [ %38, %35 ]
  %47 = load i32, ptr %22, align 4, !tbaa !16
  %48 = sub nsw i32 %47, %30
  %49 = tail call noundef i32 @llvm.smin.i32(i32 %46, i32 %48)
  store i32 %49, ptr %25, align 4, !tbaa !16
  %50 = getelementptr inbounds nuw i8, ptr %25, i64 4
  %51 = load i32, ptr %8, align 4, !tbaa !16
  %52 = sub nsw i32 %51, %34
  %53 = tail call noundef i32 @llvm.smin.i32(i32 %45, i32 %52)
  store i32 %53, ptr %50, align 4, !tbaa !16
  br label %Sfm_TimEdgeRequired.exit.i

Sfm_TimEdgeRequired.exit.i:                       ; preds = %44, %35
  %54 = tail call ptr @Mio_PinReadNext(ptr noundef nonnull %.072.i) #13
  %.not.i = icmp eq ptr %54, null
  br i1 %.not.i, label %Sfm_TimGateRequired.exit, label %23, !llvm.loop !21

Sfm_TimGateRequired.exit:                         ; preds = %Sfm_TimEdgeRequired.exit.i, %.critedge
  call void @llvm.lifetime.end.p0(i64 48, ptr nonnull %3) #13
  ret void
}